target datalayout = "e-m:e-p270:32:32-p271:32:32-p272:64:64-i64:64-i128:128-f80:128-n8:16:32:64-S128"
target triple = "x86_64-pc-linux-gnu"

%struct.AVFilterContext = type { ptr, ptr, ptr, ptr, ptr, i32, ptr, ptr, i32, ptr, ptr, i32, i32, ptr, ptr, ptr, ptr, i32, ptr, i32, i32 }
%struct.VAAPIVPPContext = type { ptr, ptr, ptr, i32, i32, i32, ptr, ptr, %struct._VARectangle, i32, i32, i32, [10 x i32], i32, i32, ptr, ptr }
%struct._VARectangle = type { i16, i16, i16, i16 }
%struct.AVVAAPIDeviceContext = type { ptr, i32 }

@.str.3 = private unnamed_addr constant [30 x i8] c"Assertion %s failed at %s:%d\0A\00", align 1
@.str.5 = private unnamed_addr constant [24 x i8] c"libavfilter/vaapi_vpp.c\00", align 1
@.str.17 = private unnamed_addr constant [48 x i8] c"ctx->nb_filter_buffers + 1 <= VAProcFilterCount\00", align 1
@.str.18 = private unnamed_addr constant [55 x i8] c"Failed to create parameter buffer (type %d): %d (%s).\0A\00", align 1
@.str.19 = private unnamed_addr constant [53 x i8] c"Param buffer (type %d, %zu bytes, count %d) is %#x.\0A\00", align 1

; Function Attrs: nounwind uwtable
define i32 @ff_vaapi_vpp_make_param_buffers(ptr noundef %0, i32 noundef %1, ptr noundef %2, i64 noundef %3, i32 noundef %4) #0 {
  %6 = alloca i32, align 4
  %7 = alloca ptr, align 8
  %8 = alloca i32, align 4
  %9 = alloca ptr, align 8
  %10 = alloca i64, align 8
  %11 = alloca i32, align 4
  %12 = alloca i32, align 4
  %13 = alloca i32, align 4
  %14 = alloca ptr, align 8
  %15 = alloca i32, align 4
  store ptr %0, ptr %7, align 8, !tbaa !4
  store i32 %1, ptr %8, align 4, !tbaa !12
  store ptr %2, ptr %9, align 8, !tbaa !170
  store i64 %3, ptr %10, align 8, !tbaa !171
  store i32 %4, ptr %11, align 4, !tbaa !12
  call void @llvm.lifetime.start.p0(i64 4, ptr %12) #7
  call void @llvm.lifetime.start.p0(i64 4, ptr %13) #7
  call void @llvm.lifetime.start.p0(i64 8, ptr %14) #7
  %16 = load ptr, ptr %7, align 8, !tbaa !4
  %17 = getelementptr inbounds nuw %struct.AVFilterContext, ptr %16, i32 0, i32 9
  %18 = load ptr, ptr %17, align 8, !tbaa !14
  store ptr %18, ptr %14, align 8, !tbaa !25
  br label %19

19:                                               ; preds = %5
  %20 = load ptr, ptr %14, align 8, !tbaa !25
  %21 = getelementptr inbounds nuw %struct.VAAPIVPPContext, ptr %20, i32 0, i32 13
  %22 = load i32, ptr %21, align 4, !tbaa !27
  %23 = add nsw i32 %22, 1
  %24 = icmp sle i32 %23, 10
  br i1 %24, label %26, label %25

25:                                               ; preds = %19
  call void (ptr, i32, ptr, ...) @av_log(ptr noundef null, i32 noundef 0, ptr noundef @.str.3, ptr noundef @.str.17, ptr noundef @.str.5, i32 noundef 592)
  call void @abort() #8
  unreachable

26:                                               ; preds = %19
  br label %27

27:                                               ; preds = %26
  br label %28

28:                                               ; preds = %27
  %29 = load ptr, ptr %14, align 8, !tbaa !25
  %30 = getelementptr inbounds nuw %struct.VAAPIVPPContext, ptr %29, i32 0, i32 1
  %31 = load ptr, ptr %30, align 8, !tbaa !33
  %32 = getelementptr inbounds nuw %struct.AVVAAPIDeviceContext, ptr %31, i32 0, i32 0
  %33 = load ptr, ptr %32, align 8, !tbaa !34
  %34 = load ptr, ptr %14, align 8, !tbaa !25
  %35 = getelementptr inbounds nuw %struct.VAAPIVPPContext, ptr %34, i32 0, i32 5
  %36 = load i32, ptr %35, align 8, !tbaa !38
  %37 = load i32, ptr %8, align 4, !tbaa !12
  %38 = load i64, ptr %10, align 8, !tbaa !171
  %39 = trunc i64 %38 to i32
  %40 = load i32, ptr %11, align 4, !tbaa !12
  %41 = load ptr, ptr %9, align 8, !tbaa !170
  %42 = call i32 @vaCreateBuffer(ptr noundef %33, i32 noundef %36, i32 noundef %37, i32 noundef %39, i32 noundef %40, ptr noundef %41, ptr noundef %13)
  store i32 %42, ptr %12, align 4, !tbaa !12
  %43 = load i32, ptr %12, align 4, !tbaa !12
  %44 = icmp ne i32 %43, 0
  br i1 %44, label %45, label %51

45:                                               ; preds = %28
  %46 = load ptr, ptr %7, align 8, !tbaa !4
  %47 = load i32, ptr %8, align 4, !tbaa !12
  %48 = load i32, ptr %12, align 4, !tbaa !12
  %49 = load i32, ptr %12, align 4, !tbaa !12
  %50 = call ptr @vaErrorStr(i32 noundef %49)
  call void (ptr, i32, ptr, ...) @av_log(ptr noundef %46, i32 noundef 16, ptr noundef @.str.18, i32 noundef %47, i32 noundef %48, ptr noundef %50)
  store i32 -5, ptr %6, align 4
  store i32 1, ptr %15, align 4
  br label %66

51:                                               ; preds = %28
  %52 = load i32, ptr %13, align 4, !tbaa !12
  %53 = load ptr, ptr %14, align 8, !tbaa !25
  %54 = getelementptr inbounds nuw %struct.VAAPIVPPContext, ptr %53, i32 0, i32 12
  %55 = load ptr, ptr %14, align 8, !tbaa !25
  %56 = getelementptr inbounds nuw %struct.VAAPIVPPContext, ptr %55, i32 0, i32 13
  %57 = load i32, ptr %56, align 4, !tbaa !27
  %58 = add nsw i32 %57, 1
  store i32 %58, ptr %56, align 4, !tbaa !27
  %59 = sext i32 %57 to i64
  %60 = getelementptr inbounds [10 x i32], ptr %54, i64 0, i64 %59
  store i32 %52, ptr %60, align 4, !tbaa !12
  %61 = load ptr, ptr %7, align 8, !tbaa !4
  %62 = load i32, ptr %8, align 4, !tbaa !12
  %63 = load i64, ptr %10, align 8, !tbaa !171
  %64 = load i32, ptr %11, align 4, !tbaa !12
  %65 = load i32, ptr %13, align 4, !tbaa !12
  call void (ptr, i32, ptr, ...) @av_log(ptr noundef %61, i32 noundef 48, ptr noundef @.str.19, i32 noundef %62, i64 noundef %63, i32 noundef %64, i32 noundef %65)
  store i32 0, ptr %6, align 4
  store i32 1, ptr %15, align 4
  br label %66

66:                                               ; preds = %51, %45
  call void @llvm.lifetime.end.p0(i64 8, ptr %14) #7
  call void @llvm.lifetime.end.p0(i64 4, ptr %13) #7
  call void @llvm.lifetime.end.p0(i64 4, ptr %12) #7
  %67 = load i32, ptr %6, align 4
  ret i32 %67
}