; Function Attrs: nounwind uwtable
define range(i32 -5, 1) i32 @ff_vaapi_vpp_make_param_buffers(ptr noundef %0, i32 noundef %1, ptr noundef %2, i64 noundef %3, i32 noundef %4) local_unnamed_addr #0 {
  %6 = alloca i32, align 4
  call void @llvm.lifetime.start.p0(i64 4, ptr nonnull %6) #7
  %7 = getelementptr inbounds nuw i8, ptr %0, i64 72
  %8 = load ptr, ptr %7, align 8, !tbaa !4
  %9 = getelementptr inbounds nuw i8, ptr %8, i64 116
  %10 = load i32, ptr %9, align 4, !tbaa !20
  %11 = icmp slt i32 %10, 10
  br i1 %11, label %13, label %12

12:                                               ; preds = %5
  tail call void (ptr, i32, ptr, ...) @av_log(ptr noundef null, i32 noundef 0, ptr noundef nonnull @.str.3, ptr noundef nonnull @.str.17, ptr noundef nonnull @.str.5, i32 noundef 592) #7
  tail call void @abort() #8
  unreachable

13:                                               ; preds = %5
  %14 = getelementptr inbounds nuw i8, ptr %8, i64 8
  %15 = load ptr, ptr %14, align 8, !tbaa !27
  %16 = load ptr, ptr %15, align 8, !tbaa !28
  %17 = getelementptr inbounds nuw i8, ptr %8, i64 32
  %18 = load i32, ptr %17, align 8, !tbaa !32
  %19 = trunc i64 %3 to i32
  %20 = call i32 @vaCreateBuffer(ptr noundef %16, i32 noundef %18, i32 noundef %1, i32 noundef %19, i32 noundef %4, ptr noundef %2, ptr noundef nonnull %6) #7
  %.not = icmp eq i32 %20, 0
  br i1 %.not, label %23, label %21

21:                                               ; preds = %13
  %22 = call ptr @vaErrorStr(i32 noundef %20) #7
  call void (ptr, i32, ptr, ...) @av_log(ptr noundef nonnull %0, i32 noundef 16, ptr noundef nonnull @.str.18, i32 noundef %1, i32 noundef %20, ptr noundef %22) #7
  br label %30

23:                                               ; preds = %13
  %24 = load i32, ptr %6, align 4, !tbaa !26
  %25 = getelementptr inbounds nuw i8, ptr %8, i64 76
  %26 = load i32, ptr %9, align 4, !tbaa !20
  %27 = add nsw i32 %26, 1
  store i32 %27, ptr %9, align 4, !tbaa !20
  %28 = sext i32 %26 to i64
  %29 = getelementptr inbounds [10 x i32], ptr %25, i64 0, i64 %28
  store i32 %24, ptr %29, align 4, !tbaa !26
  call void (ptr, i32, ptr, ...) @av_log(ptr noundef nonnull %0, i32 noundef 48, ptr noundef nonnull @.str.19, i32 noundef %1, i64 noundef %3, i32 noundef %4, i32 noundef %24) #7
  br label %30

30:                                               ; preds = %23, %21
  %.0 = phi i32 [ -5, %21 ], [ 0, %23 ]
  call void @llvm.lifetime.end.p0(i64 4, ptr nonnull %6) #7
  ret i32 %.0
}